target datalayout = "e-m:e-p270:32:32-p271:32:32-p272:64:64-i64:64-i128:128-f80:128-n8:16:32:64-S128"
target triple = "x86_64-pc-linux-gnu"

%"class.sat::literal" = type { i32 }
%class.symbol = type { ptr }
%"class.smt::theory_lra" = type { %"class.smt::theory.base", %"class.smt::theory_opt", ptr }
%"class.smt::theory.base" = type <{ ptr, i32, [4 x i8], ptr, ptr, %class.ptr_vector, %class.svector, i32, i8 }>
%class.ptr_vector = type { %class.vector }
%class.vector = type { ptr }
%class.svector = type { %class.vector.0 }
%class.vector.0 = type { ptr }
%"class.smt::theory_opt" = type { ptr }
%class.arith_util = type { ptr, ptr }
%class.u_map = type { %class.map }
%class.map = type { %class.table2map }
%class.table2map = type { %class.core_hashtable.10 }
%class.core_hashtable.10 = type <{ ptr, i32, i32, i32, [4 x i8] }>
%class.obj_ref = type { ptr, ptr }
%class.ptr_vector.53 = type { %class.vector.54 }
%class.vector.54 = type { ptr }
%class.svector.88 = type { %class.vector.89 }
%class.vector.89 = type { ptr }
%class.ptr_vector.6 = type { %class.vector.7 }
%class.vector.7 = type { ptr }
%class.svector.194 = type { %class.vector.195 }
%class.vector.195 = type { ptr }
%class.ref_vector = type { %class.ref_vector_core }
%class.ref_vector_core = type { %class.ref_manager_wrapper, %class.ptr_vector.6 }
%class.ref_manager_wrapper = type { ptr }
%class.uint_set = type { %class.svector }
%"struct.smt::theory_lra::imp::var_value_hash" = type { ptr }
%"struct.smt::theory_lra::imp::var_value_eq" = type { ptr }
%"class.smt::theory_lra::imp" = type { ptr, ptr, %class.arith_util, %"class.smt::arith_eq_adapter", %class.vector.295, %class.ptr_vector.296, i32, %class.vector.298, i32, i32, i32, i32, %class.svector.299, %class.svector.194, %class.svector.291, %class.svector.88, %class.svector.301, %class.ptr_vector.6, %class.ptr_vector.53, %class.ptr_vector.53, %class.vector.303, %class.u_map.304, %class.vector.303, %class.svector, %class.svector, i32, %class.svector, %class.svector.309, i32, %class.indexed_uint_set, i32, %class.scoped_ptr.311, %class.scoped_ptr.312, %class.int_hashtable, %class.svector.315, %"struct.lp_api::stats", ptr, %class.scoped_ptr.317, %"class.smt::theory_lra::imp::resource_limit", %class.ptr_vector.318, %class.symbol, %class.vector.320, %"class.std::vector", %"class.lp::lp_bound_propagator", %class.vector.295, %class.map.327, %class.vector.331, i8, %"class.nla::lemma", i8, %class.svector.194, %class.svector, %class.vector.331, %class.vector.331, %class.vector.331, %"class.lp::explanation", %class.svector.194, %class.svector.291, %class.vector.320, i32, i32, %"class.sat::literal", %class.ref_vector, %class.obj_ref }
%"class.smt::arith_eq_adapter" = type { %"struct.smt::arith_eq_adapter_stats", ptr, ptr, %class.obj_pair_map.286, %class.svector.291, %class.svector.293 }
%"struct.smt::arith_eq_adapter_stats" = type { i32 }
%class.obj_pair_map.286 = type { %class.core_hashtable.287 }
%class.core_hashtable.287 = type <{ ptr, i32, i32, i32, [4 x i8] }>
%class.svector.293 = type { %class.vector.294 }
%class.vector.294 = type { ptr }
%class.ptr_vector.296 = type { %class.vector.297 }
%class.vector.297 = type { ptr }
%class.vector.298 = type { ptr }
%class.svector.299 = type { %class.vector.300 }
%class.vector.300 = type { ptr }
%class.svector.301 = type { %class.vector.302 }
%class.vector.302 = type { ptr }
%class.u_map.304 = type { %class.map.305 }
%class.map.305 = type { %class.table2map.306 }
%class.table2map.306 = type { %class.core_hashtable.307 }
%class.core_hashtable.307 = type <{ ptr, i32, i32, i32, [4 x i8] }>
%class.vector.303 = type { ptr }
%class.svector.309 = type { %class.vector.310 }
%class.vector.310 = type { ptr }
%class.indexed_uint_set = type { i32, %class.svector, %class.svector }
%class.scoped_ptr.311 = type { ptr }
%class.scoped_ptr.312 = type { ptr }
%class.int_hashtable = type { %class.core_hashtable.base.314, [4 x i8] }
%class.core_hashtable.base.314 = type <{ %"struct.smt::theory_lra::imp::var_value_hash", %"struct.smt::theory_lra::imp::var_value_eq", ptr, i32, i32, i32 }>
%class.svector.315 = type { %class.vector.316 }
%class.vector.316 = type { ptr }
%"struct.lp_api::stats" = type { i32, i32, i32, i32, i32, i32, i32, i32, i32, i32, i32, i32, i32, i32, i32, i32 }
%class.scoped_ptr.317 = type { ptr }
%"class.smt::theory_lra::imp::resource_limit" = type { %"class.lp::lp_resource_limit", ptr }
%"class.lp::lp_resource_limit" = type { ptr }
%class.ptr_vector.318 = type { %class.vector.319 }
%class.vector.319 = type { ptr }
%"class.std::vector" = type { %"struct.std::_Vector_base" }
%"struct.std::_Vector_base" = type { %"struct.std::_Vector_base<lp::implied_bound, std_allocator<lp::implied_bound>>::_Vector_impl" }
%"struct.std::_Vector_base<lp::implied_bound, std_allocator<lp::implied_bound>>::_Vector_impl" = type { %"struct.std::_Vector_base<lp::implied_bound, std_allocator<lp::implied_bound>>::_Vector_impl_data" }
%"struct.std::_Vector_base<lp::implied_bound, std_allocator<lp::implied_bound>>::_Vector_impl_data" = type { ptr, ptr, ptr }
%"class.lp::lp_bound_propagator" = type { %class.uint_set, %class.u_map, %class.u_map, ptr, ptr, %class.map.321, %class.map.321, %class.map.321, ptr }
%class.map.321 = type { %class.table2map.322 }
%class.table2map.322 = type { %class.core_hashtable.323 }
%class.core_hashtable.323 = type <{ ptr, i32, i32, i32, [4 x i8] }>
%class.vector.295 = type { ptr }
%class.map.327 = type { %class.table2map.328 }
%class.table2map.328 = type { %class.core_hashtable.329 }
%class.core_hashtable.329 = type <{ ptr, i32, i32, i32, [4 x i8] }>
%"class.nla::lemma" = type { %class.vector.332, %"class.lp::explanation" }
%class.vector.332 = type { ptr }
%class.vector.331 = type { ptr }
%"class.lp::explanation" = type { %class.vector.331, %class.hashtable }
%class.hashtable = type { %class.core_hashtable.base.334, [4 x i8] }
%class.core_hashtable.base.334 = type <{ ptr, i32, i32, i32 }>
%class.svector.291 = type { %class.vector.292 }
%class.vector.292 = type { ptr }
%class.vector.320 = type { ptr }
%class.ast = type { i32, i32, i32, i32 }

@_ZN3smtL12null_literalE = internal constant %"class.sat::literal" { i32 -2 }, align 4

; Function Attrs: mustprogress nounwind uwtable
define linkonce_odr hidden noundef i32 @_ZNK3ast13get_ref_countEv(ptr noundef nonnull align 4 dereferenceable(16) %0) #4 comdat align 2 {
  %2 = alloca ptr, align 8
  store ptr %0, ptr %2, align 8, !tbaa !1213
  %3 = load ptr, ptr %2, align 8
  %4 = getelementptr inbounds nuw %class.ast, ptr %3, i32 0, i32 2
  %5 = load i32, ptr %4, align 4, !tbaa !1215
  ret i32 %5
}

; Function Attrs: mustprogress nounwind uwtable
define linkonce_odr hidden void @_ZN3ast7dec_refEv(ptr noundef nonnull align 4 dereferenceable(16) %0) #4 comdat align 2 {
  %2 = alloca ptr, align 8
  store ptr %0, ptr %2, align 8, !tbaa !1213
  %3 = load ptr, ptr %2, align 8
  %4 = getelementptr inbounds nuw %class.ast, ptr %3, i32 0, i32 2
  %5 = load i32, ptr %4, align 4, !tbaa !1215
  %6 = add i32 %5, -1
  store i32 %6, ptr %4, align 4, !tbaa !1215
  ret void
}

; Function Attrs: mustprogress uwtable
define linkonce_odr hidden void @_ZN19ref_manager_wrapperI4expr11ast_managerE7dec_refEPS0_(ptr noundef nonnull align 8 dereferenceable(8) %0, ptr noundef %1) #6 comdat align 2 {
  %3 = alloca ptr, align 8
  %4 = alloca ptr, align 8
  store ptr %0, ptr %3, align 8, !tbaa !1118
  store ptr %1, ptr %4, align 8, !tbaa !667
  %5 = load ptr, ptr %3, align 8
  %6 = getelementptr inbounds nuw %class.ref_manager_wrapper, ptr %5, i32 0, i32 0
  %7 = load ptr, ptr %6, align 8, !tbaa !1218
  %8 = load ptr, ptr %4, align 8, !tbaa !667
  call void @_ZN11ast_manager7dec_refEP3ast(ptr noundef nonnull align 8 dereferenceable(976) %7, ptr noundef %8)
  ret void
}

; Function Attrs: mustprogress uwtable
define linkonce_odr hidden void @_ZN11ast_manager7dec_refEP3ast(ptr noundef nonnull align 8 dereferenceable(976) %0, ptr noundef %1) #6 comdat align 2 {
  %3 = alloca ptr, align 8
  %4 = alloca ptr, align 8
  store ptr %0, ptr %3, align 8, !tbaa !531
  store ptr %1, ptr %4, align 8, !tbaa !1213
  %5 = load ptr, ptr %3, align 8
  %6 = load ptr, ptr %4, align 8, !tbaa !1213
  %7 = icmp ne ptr %6, null
  br i1 %7, label %8, label %16

8:                                                ; preds = %2
  %9 = load ptr, ptr %4, align 8, !tbaa !1213
  call void @_ZN3ast7dec_refEv(ptr noundef nonnull align 4 dereferenceable(16) %9)
  %10 = load ptr, ptr %4, align 8, !tbaa !1213
  %11 = call noundef i32 @_ZNK3ast13get_ref_countEv(ptr noundef nonnull align 4 dereferenceable(16) %10)
  %12 = icmp eq i32 %11, 0
  br i1 %12, label %13, label %15

13:                                               ; preds = %8
  %14 = load ptr, ptr %4, align 8, !tbaa !1213
  call void @_ZN11ast_manager11delete_nodeEP3ast(ptr noundef nonnull align 8 dereferenceable(976) %5, ptr noundef %14)
  br label %15

15:                                               ; preds = %13, %8
  br label %16

16:                                               ; preds = %15, %2
  ret void
}

; Function Attrs: mustprogress nounwind uwtable
define linkonce_odr hidden void @_ZN3ast7inc_refEv(ptr noundef nonnull align 4 dereferenceable(16) %0) #4 comdat align 2 {
  %2 = alloca ptr, align 8
  store ptr %0, ptr %2, align 8, !tbaa !1213
  %3 = load ptr, ptr %2, align 8
  %4 = getelementptr inbounds nuw %class.ast, ptr %3, i32 0, i32 2
  %5 = load i32, ptr %4, align 4, !tbaa !1215
  %6 = add i32 %5, 1
  store i32 %6, ptr %4, align 4, !tbaa !1215
  ret void
}

; Function Attrs: mustprogress uwtable
define linkonce_odr hidden void @_ZN15ref_vector_coreI4expr19ref_manager_wrapperIS0_11ast_managerEE7dec_refEPS0_(ptr noundef nonnull align 8 dereferenceable(16) %0, ptr noundef %1) #6 comdat align 2 {
  %3 = alloca ptr, align 8
  %4 = alloca ptr, align 8
  store ptr %0, ptr %3, align 8, !tbaa !954
  store ptr %1, ptr %4, align 8, !tbaa !667
  %5 = load ptr, ptr %3, align 8
  %6 = load ptr, ptr %4, align 8, !tbaa !667
  call void @_ZN19ref_manager_wrapperI4expr11ast_managerE7dec_refEPS0_(ptr noundef nonnull align 8 dereferenceable(8) %5, ptr noundef %6)
  ret void
}

; Function Attrs: mustprogress uwtable
define linkonce_odr hidden void @_ZN7obj_refI4expr11ast_managerE7dec_refEv(ptr noundef nonnull align 8 dereferenceable(16) %0) #6 comdat align 2 {
  %2 = alloca ptr, align 8
  store ptr %0, ptr %2, align 8, !tbaa !714
  %3 = load ptr, ptr %2, align 8
  %4 = getelementptr inbounds nuw %class.obj_ref, ptr %3, i32 0, i32 0
  %5 = load ptr, ptr %4, align 8, !tbaa !952
  %6 = icmp ne ptr %5, null
  br i1 %6, label %7, label %12

7:                                                ; preds = %1
  %8 = getelementptr inbounds nuw %class.obj_ref, ptr %3, i32 0, i32 1
  %9 = load ptr, ptr %8, align 8, !tbaa !1212
  %10 = getelementptr inbounds nuw %class.obj_ref, ptr %3, i32 0, i32 0
  %11 = load ptr, ptr %10, align 8, !tbaa !952
  call void @_ZN11ast_manager7dec_refEP3ast(ptr noundef nonnull align 8 dereferenceable(976) %9, ptr noundef %11)
  br label %12

12:                                               ; preds = %7, %1
  ret void
}

; Function Attrs: mustprogress uwtable
define linkonce_odr hidden void @_ZN11ast_manager7inc_refEP3ast(ptr noundef nonnull align 8 dereferenceable(976) %0, ptr noundef %1) #6 comdat align 2 {
  %3 = alloca ptr, align 8
  %4 = alloca ptr, align 8
  store ptr %0, ptr %3, align 8, !tbaa !531
  store ptr %1, ptr %4, align 8, !tbaa !1213
  %5 = load ptr, ptr %4, align 8, !tbaa !1213
  %6 = icmp ne ptr %5, null
  br i1 %6, label %7, label %9

7:                                                ; preds = %2
  %8 = load ptr, ptr %4, align 8, !tbaa !1213
  call void @_ZN3ast7inc_refEv(ptr noundef nonnull align 4 dereferenceable(16) %8)
  br label %9

9:                                                ; preds = %7, %2
  ret void
}

; Function Attrs: mustprogress nounwind uwtable
define linkonce_odr hidden void @_ZN6vectorIP4exprLb0EjE5resetEv(ptr noundef nonnull align 8 dereferenceable(8) %0) #4 comdat align 2 {
  %2 = alloca ptr, align 8
  store ptr %0, ptr %2, align 8, !tbaa !975
  %3 = load ptr, ptr %2, align 8
  %4 = getelementptr inbounds nuw %class.vector.7, ptr %3, i32 0, i32 0
  %5 = load ptr, ptr %4, align 8, !tbaa !1025
  %6 = icmp ne ptr %5, null
  br i1 %6, label %7, label %11

7:                                                ; preds = %1
  %8 = getelementptr inbounds nuw %class.vector.7, ptr %3, i32 0, i32 0
  %9 = load ptr, ptr %8, align 8, !tbaa !1025
  %10 = getelementptr inbounds i32, ptr %9, i64 -1
  store i32 0, ptr %10, align 4, !tbaa !8
  br label %11

11:                                               ; preds = %7, %1
  ret void
}

; Function Attrs: mustprogress uwtable
define linkonce_odr hidden void @_ZN15ref_vector_coreI4expr19ref_manager_wrapperIS0_11ast_managerEE13dec_range_refEPKPS0_S7_(ptr noundef nonnull align 8 dereferenceable(16) %0, ptr noundef %1, ptr noundef %2) #6 comdat align 2 {
  %4 = alloca ptr, align 8
  %5 = alloca ptr, align 8
  %6 = alloca ptr, align 8
  %7 = alloca ptr, align 8
  store ptr %0, ptr %4, align 8, !tbaa !954
  store ptr %1, ptr %5, align 8, !tbaa !701
  store ptr %2, ptr %6, align 8, !tbaa !701
  %8 = load ptr, ptr %4, align 8
  call void @llvm.lifetime.start.p0(i64 8, ptr %7) #3
  %9 = load ptr, ptr %5, align 8, !tbaa !701
  store ptr %9, ptr %7, align 8, !tbaa !701
  br label %10

10:                                               ; preds = %18, %3
  %11 = load ptr, ptr %7, align 8, !tbaa !701
  %12 = load ptr, ptr %6, align 8, !tbaa !701
  %13 = icmp ult ptr %11, %12
  br i1 %13, label %15, label %14

14:                                               ; preds = %10
  call void @llvm.lifetime.end.p0(i64 8, ptr %7) #3
  br label %21

15:                                               ; preds = %10
  %16 = load ptr, ptr %7, align 8, !tbaa !701
  %17 = load ptr, ptr %16, align 8, !tbaa !667
  call void @_ZN15ref_vector_coreI4expr19ref_manager_wrapperIS0_11ast_managerEE7dec_refEPS0_(ptr noundef nonnull align 8 dereferenceable(16) %8, ptr noundef %17)
  br label %18

18:                                               ; preds = %15
  %19 = load ptr, ptr %7, align 8, !tbaa !701
  %20 = getelementptr inbounds nuw ptr, ptr %19, i32 1
  store ptr %20, ptr %7, align 8, !tbaa !701
  br label %10, !llvm.loop !1217

21:                                               ; preds = %14
  ret void
}

; Function Attrs: mustprogress nounwind uwtable
define linkonce_odr hidden noundef i32 @_ZNK6vectorIP4exprLb0EjE4sizeEv(ptr noundef nonnull align 8 dereferenceable(8) %0) #4 comdat align 2 {
  %2 = alloca i32, align 4
  %3 = alloca ptr, align 8
  store ptr %0, ptr %3, align 8, !tbaa !975
  %4 = load ptr, ptr %3, align 8
  %5 = getelementptr inbounds nuw %class.vector.7, ptr %4, i32 0, i32 0
  %6 = load ptr, ptr %5, align 8, !tbaa !1025
  %7 = icmp eq ptr %6, null
  br i1 %7, label %8, label %9

8:                                                ; preds = %1
  store i32 0, ptr %2, align 4
  br label %14

9:                                                ; preds = %1
  %10 = getelementptr inbounds nuw %class.vector.7, ptr %4, i32 0, i32 0
  %11 = load ptr, ptr %10, align 8, !tbaa !1025
  %12 = getelementptr inbounds i32, ptr %11, i64 -1
  %13 = load i32, ptr %12, align 4, !tbaa !8
  store i32 %13, ptr %2, align 4
  br label %14

14:                                               ; preds = %9, %8
  %15 = load i32, ptr %2, align 4
  ret i32 %15
}

; Function Attrs: mustprogress nounwind uwtable
define linkonce_odr hidden noundef ptr @_ZNK6vectorIP4exprLb0EjE4dataEv(ptr noundef nonnull align 8 dereferenceable(8) %0) #4 comdat align 2 {
  %2 = alloca ptr, align 8
  store ptr %0, ptr %2, align 8, !tbaa !975
  %3 = load ptr, ptr %2, align 8
  %4 = getelementptr inbounds nuw %class.vector.7, ptr %3, i32 0, i32 0
  %5 = load ptr, ptr %4, align 8, !tbaa !1025
  ret ptr %5
}

; Function Attrs: mustprogress uwtable
define linkonce_odr hidden noundef nonnull align 8 dereferenceable(16) ptr @_ZN7obj_refI4expr11ast_managerEaSEPS0_(ptr noundef nonnull align 8 dereferenceable(16) %0, ptr noundef %1) #6 comdat align 2 {
  %3 = alloca ptr, align 8
  %4 = alloca ptr, align 8
  store ptr %0, ptr %3, align 8, !tbaa !714
  store ptr %1, ptr %4, align 8, !tbaa !667
  %5 = load ptr, ptr %3, align 8
  %6 = load ptr, ptr %4, align 8, !tbaa !667
  %7 = icmp ne ptr %6, null
  br i1 %7, label %8, label %12

8:                                                ; preds = %2
  %9 = getelementptr inbounds nuw %class.obj_ref, ptr %5, i32 0, i32 1
  %10 = load ptr, ptr %9, align 8, !tbaa !1212
  %11 = load ptr, ptr %4, align 8, !tbaa !667
  call void @_ZN11ast_manager7inc_refEP3ast(ptr noundef nonnull align 8 dereferenceable(976) %10, ptr noundef %11)
  br label %12

12:                                               ; preds = %8, %2
  call void @_ZN7obj_refI4expr11ast_managerE7dec_refEv(ptr noundef nonnull align 8 dereferenceable(16) %5)
  %13 = load ptr, ptr %4, align 8, !tbaa !667
  %14 = getelementptr inbounds nuw %class.obj_ref, ptr %5, i32 0, i32 0
  store ptr %13, ptr %14, align 8, !tbaa !952
  ret ptr %5
}

; Function Attrs: mustprogress uwtable
define linkonce_odr hidden void @_ZN15ref_vector_coreI4expr19ref_manager_wrapperIS0_11ast_managerEE5resetEv(ptr noundef nonnull align 8 dereferenceable(16) %0) #6 comdat align 2 {
  %2 = alloca ptr, align 8
  store ptr %0, ptr %2, align 8, !tbaa !954
  %3 = load ptr, ptr %2, align 8
  %4 = getelementptr inbounds nuw %class.ref_vector_core, ptr %3, i32 0, i32 1
  %5 = call noundef ptr @_ZNK6vectorIP4exprLb0EjE4dataEv(ptr noundef nonnull align 8 dereferenceable(8) %4)
  %6 = getelementptr inbounds nuw %class.ref_vector_core, ptr %3, i32 0, i32 1
  %7 = call noundef ptr @_ZNK6vectorIP4exprLb0EjE4dataEv(ptr noundef nonnull align 8 dereferenceable(8) %6)
  %8 = getelementptr inbounds nuw %class.ref_vector_core, ptr %3, i32 0, i32 1
  %9 = call noundef i32 @_ZNK6vectorIP4exprLb0EjE4sizeEv(ptr noundef nonnull align 8 dereferenceable(8) %8)
  %10 = zext i32 %9 to i64
  %11 = getelementptr inbounds nuw ptr, ptr %7, i64 %10
  call void @_ZN15ref_vector_coreI4expr19ref_manager_wrapperIS0_11ast_managerEE13dec_range_refEPKPS0_S7_(ptr noundef nonnull align 8 dereferenceable(16) %3, ptr noundef %5, ptr noundef %11)
  %12 = getelementptr inbounds nuw %class.ref_vector_core, ptr %3, i32 0, i32 1
  call void @_ZN6vectorIP4exprLb0EjE5resetEv(ptr noundef nonnull align 8 dereferenceable(8) %12)
  ret void
}

; Function Attrs: mustprogress uwtable
define linkonce_odr hidden void @_ZN3smt10theory_lra3imp5setupEv(ptr noundef nonnull align 8 dereferenceable(928) %0) #6 comdat align 2 {
  %2 = alloca ptr, align 8
  store ptr %0, ptr %2, align 8, !tbaa !535
  %3 = load ptr, ptr %2, align 8
  %4 = getelementptr inbounds nuw %"class.smt::theory_lra::imp", ptr %3, i32 0, i32 61
  call void @llvm.memcpy.p0.p0.i64(ptr align 8 %4, ptr align 4 @_ZN3smtL12null_literalE, i64 4, i1 false), !tbaa.struct !631
  %5 = getelementptr inbounds nuw %"class.smt::theory_lra::imp", ptr %3, i32 0, i32 62
  call void @_ZN15ref_vector_coreI4expr19ref_manager_wrapperIS0_11ast_managerEE5resetEv(ptr noundef nonnull align 8 dereferenceable(16) %5)
  %6 = getelementptr inbounds nuw %"class.smt::theory_lra::imp", ptr %3, i32 0, i32 63
  %7 = call noundef nonnull align 8 dereferenceable(16) ptr @_ZN7obj_refI4expr11ast_managerEaSEPS0_(ptr noundef nonnull align 8 dereferenceable(16) %6, ptr noundef null)
  ret void
}

; Function Attrs: mustprogress uwtable
define hidden void @_ZN3smt10theory_lra5setupEv(ptr noundef nonnull align 8 dereferenceable(72) %0) unnamed_addr #6 align 2 {
  %2 = alloca ptr, align 8
  store ptr %0, ptr %2, align 8, !tbaa !28
  %3 = load ptr, ptr %2, align 8
  %4 = getelementptr inbounds nuw %"class.smt::theory_lra", ptr %3, i32 0, i32 2
  %5 = load ptr, ptr %4, align 8, !tbaa !34
  call void @_ZN3smt10theory_lra3imp5setupEv(ptr noundef nonnull align 8 dereferenceable(928) %5)
  ret void
}