; Function Attrs: mustprogress uwtable
define hidden void @_ZN3smt10theory_lra5setupEv(ptr noundef nonnull readonly align 8 captures(none) dereferenceable(72) %0) unnamed_addr #4 align 2 {
  %2 = getelementptr inbounds nuw i8, ptr %0, i64 64
  %3 = load ptr, ptr %2, align 8, !tbaa !506
  %4 = getelementptr inbounds nuw i8, ptr %3, i64 888
  store i32 -2, ptr %4, align 8, !tbaa !652
  %5 = getelementptr inbounds nuw i8, ptr %3, i64 896
  %6 = getelementptr inbounds nuw i8, ptr %3, i64 904
  %7 = load ptr, ptr %6, align 8, !tbaa !736
  %8 = icmp eq ptr %7, null
  br i1 %8, label %_ZN15ref_vector_coreI4expr19ref_manager_wrapperIS0_11ast_managerEE5resetEv.exit.i, label %_ZNK6vectorIP4exprLb0EjE4sizeEv.exit.i.i

_ZNK6vectorIP4exprLb0EjE4sizeEv.exit.i.i:         ; preds = %1
  %9 = getelementptr inbounds i8, ptr %7, i64 -4
  %10 = load i32, ptr %9, align 4, !tbaa !652
  %11 = zext i32 %10 to i64
  %12 = getelementptr inbounds nuw ptr, ptr %7, i64 %11
  %.not.i.i = icmp eq i32 %10, 0
  br i1 %.not.i.i, label %_ZN15ref_vector_coreI4expr19ref_manager_wrapperIS0_11ast_managerEE13dec_range_refEPKPS0_S7_.exit.thread4.i.i, label %.lr.ph.i.i.i

.lr.ph.i.i.i:                                     ; preds = %_ZNK6vectorIP4exprLb0EjE4sizeEv.exit.i.i, %_ZN15ref_vector_coreI4expr19ref_manager_wrapperIS0_11ast_managerEE7dec_refEPS0_.exit.i.i.i
  %.06.i.i.i = phi ptr [ %21, %_ZN15ref_vector_coreI4expr19ref_manager_wrapperIS0_11ast_managerEE7dec_refEPS0_.exit.i.i.i ], [ %7, %_ZNK6vectorIP4exprLb0EjE4sizeEv.exit.i.i ]
  %13 = load ptr, ptr %.06.i.i.i, align 8, !tbaa !730
  %14 = load ptr, ptr %5, align 8, !tbaa !943
  %.not.i.i.i.i.i.i = icmp eq ptr %13, null
  br i1 %.not.i.i.i.i.i.i, label %_ZN15ref_vector_coreI4expr19ref_manager_wrapperIS0_11ast_managerEE7dec_refEPS0_.exit.i.i.i, label %15

15:                                               ; preds = %.lr.ph.i.i.i
  %16 = getelementptr inbounds nuw i8, ptr %13, i64 8
  %17 = load i32, ptr %16, align 4, !tbaa !814
  %18 = add i32 %17, -1
  store i32 %18, ptr %16, align 4, !tbaa !814
  %19 = icmp eq i32 %18, 0
  br i1 %19, label %20, label %_ZN15ref_vector_coreI4expr19ref_manager_wrapperIS0_11ast_managerEE7dec_refEPS0_.exit.i.i.i

20:                                               ; preds = %15
  tail call void @_ZN11ast_manager11delete_nodeEP3ast(ptr noundef nonnull align 8 dereferenceable(976) %14, ptr noundef nonnull %13)
  br label %_ZN15ref_vector_coreI4expr19ref_manager_wrapperIS0_11ast_managerEE7dec_refEPS0_.exit.i.i.i

_ZN15ref_vector_coreI4expr19ref_manager_wrapperIS0_11ast_managerEE7dec_refEPS0_.exit.i.i.i: ; preds = %20, %15, %.lr.ph.i.i.i
  %21 = getelementptr inbounds nuw i8, ptr %.06.i.i.i, i64 8
  %22 = icmp ult ptr %21, %12
  br i1 %22, label %.lr.ph.i.i.i, label %_ZN15ref_vector_coreI4expr19ref_manager_wrapperIS0_11ast_managerEE13dec_range_refEPKPS0_S7_.exit.i.i, !llvm.loop !944

_ZN15ref_vector_coreI4expr19ref_manager_wrapperIS0_11ast_managerEE13dec_range_refEPKPS0_S7_.exit.i.i: ; preds = %_ZN15ref_vector_coreI4expr19ref_manager_wrapperIS0_11ast_managerEE7dec_refEPS0_.exit.i.i.i
  %.pre.i.i = load ptr, ptr %6, align 8, !tbaa !736
  %.not.i.i.i = icmp eq ptr %.pre.i.i, null
  br i1 %.not.i.i.i, label %_ZN15ref_vector_coreI4expr19ref_manager_wrapperIS0_11ast_managerEE5resetEv.exit.i, label %_ZN15ref_vector_coreI4expr19ref_manager_wrapperIS0_11ast_managerEE13dec_range_refEPKPS0_S7_.exit.thread4.i.i

_ZN15ref_vector_coreI4expr19ref_manager_wrapperIS0_11ast_managerEE13dec_range_refEPKPS0_S7_.exit.thread4.i.i: ; preds = %_ZN15ref_vector_coreI4expr19ref_manager_wrapperIS0_11ast_managerEE13dec_range_refEPKPS0_S7_.exit.i.i, %_ZNK6vectorIP4exprLb0EjE4sizeEv.exit.i.i
  %23 = phi ptr [ %.pre.i.i, %_ZN15ref_vector_coreI4expr19ref_manager_wrapperIS0_11ast_managerEE13dec_range_refEPKPS0_S7_.exit.i.i ], [ %7, %_ZNK6vectorIP4exprLb0EjE4sizeEv.exit.i.i ]
  %24 = getelementptr inbounds i8, ptr %23, i64 -4
  store i32 0, ptr %24, align 4, !tbaa !652
  br label %_ZN15ref_vector_coreI4expr19ref_manager_wrapperIS0_11ast_managerEE5resetEv.exit.i

_ZN15ref_vector_coreI4expr19ref_manager_wrapperIS0_11ast_managerEE5resetEv.exit.i: ; preds = %_ZN15ref_vector_coreI4expr19ref_manager_wrapperIS0_11ast_managerEE13dec_range_refEPKPS0_S7_.exit.thread4.i.i, %_ZN15ref_vector_coreI4expr19ref_manager_wrapperIS0_11ast_managerEE13dec_range_refEPKPS0_S7_.exit.i.i, %1
  %25 = getelementptr inbounds nuw i8, ptr %3, i64 912
  %26 = load ptr, ptr %25, align 8, !tbaa !812
  %.not.i4.i.i = icmp eq ptr %26, null
  br i1 %.not.i4.i.i, label %_ZN3smt10theory_lra3imp5setupEv.exit, label %27

27:                                               ; preds = %_ZN15ref_vector_coreI4expr19ref_manager_wrapperIS0_11ast_managerEE5resetEv.exit.i
  %28 = getelementptr inbounds nuw i8, ptr %3, i64 920
  %29 = load ptr, ptr %28, align 8, !tbaa !813
  %30 = getelementptr inbounds nuw i8, ptr %26, i64 8
  %31 = load i32, ptr %30, align 4, !tbaa !814
  %32 = add i32 %31, -1
  store i32 %32, ptr %30, align 4, !tbaa !814
  %33 = icmp eq i32 %32, 0
  br i1 %33, label %34, label %_ZN3smt10theory_lra3imp5setupEv.exit

34:                                               ; preds = %27
  tail call void @_ZN11ast_manager11delete_nodeEP3ast(ptr noundef nonnull align 8 dereferenceable(976) %29, ptr noundef nonnull %26)
  br label %_ZN3smt10theory_lra3imp5setupEv.exit

_ZN3smt10theory_lra3imp5setupEv.exit:             ; preds = %_ZN15ref_vector_coreI4expr19ref_manager_wrapperIS0_11ast_managerEE5resetEv.exit.i, %27, %34
  store ptr null, ptr %25, align 8, !tbaa !812
  ret void
}